target datalayout = "e-m:e-p270:32:32-p271:32:32-p272:64:64-i64:64-i128:128-f80:128-n8:16:32:64-S128"
target triple = "x86_64-pc-linux-gnu"

%struct.pm_lex_mode = type { i32, %union.anon, ptr }
%union.anon = type { %struct.anon.3 }
%struct.anon.3 = type { %struct.pm_heredoc_lex_mode_t, ptr, ptr, i8 }
%struct.pm_heredoc_lex_mode_t = type { ptr, i64, i32, i32 }
%struct.pm_encoding_t = type { ptr, ptr, ptr, ptr, ptr, i8 }
%struct.pm_parser = type { i32, i32, i32, i32, i32, i32, i32, %struct.anon, ptr, ptr, %struct.pm_token_t, %struct.pm_token_t, ptr, ptr, %struct.pm_list_t, %struct.pm_list_t, %struct.pm_location_t, %struct.pm_list_t, %struct.pm_list_t, ptr, ptr, ptr, ptr, ptr, ptr, ptr, %struct.pm_string_t, %struct.pm_constant_pool_t, %struct.pm_newline_list_t, i16, %struct.pm_string_t, i32, ptr, ptr, i32, i8, i8, i8, i8, i8, i8, i8, i8, i8, i8, i8, i8, i8 }
%struct.anon = type { ptr, [4 x %struct.pm_lex_mode], i64 }
%struct.pm_token_t = type { i32, ptr, ptr }
%struct.pm_location_t = type { ptr, ptr }
%struct.pm_list_t = type { i64, ptr, ptr }
%struct.pm_constant_pool_t = type { ptr, ptr, i32, i32 }
%struct.pm_newline_list_t = type { ptr, i64, i64, ptr }
%struct.pm_string_t = type { ptr, i64, i32 }

@pm_encoding_unicode_table = external constant [256 x i8], align 16

; Function Attrs: inlinehint nounwind sspstrong uwtable
define internal i64 @char_is_identifier_start(ptr noundef %0, ptr noundef %1, i64 noundef %2) #7 {
  %4 = alloca i64, align 8
  %5 = alloca ptr, align 8
  %6 = alloca ptr, align 8
  %7 = alloca i64, align 8
  %8 = alloca i64, align 8
  %9 = alloca i32, align 4
  store ptr %0, ptr %5, align 8, !tbaa !7
  store ptr %1, ptr %6, align 8, !tbaa !12
  store i64 %2, ptr %7, align 8, !tbaa !14
  %10 = load i64, ptr %7, align 8, !tbaa !14
  %11 = icmp sle i64 %10, 0
  br i1 %11, label %12, label %13

12:                                               ; preds = %3
  store i64 0, ptr %4, align 8
  br label %81

13:                                               ; preds = %3
  %14 = load ptr, ptr %5, align 8, !tbaa !7
  %15 = getelementptr inbounds nuw %struct.pm_parser, ptr %14, i32 0, i32 42
  %16 = load i8, ptr %15, align 1, !tbaa !99, !range !67, !noundef !68
  %17 = trunc i8 %16 to i1
  br i1 %17, label %18, label %52

18:                                               ; preds = %13
  call void @llvm.lifetime.start.p0(i64 8, ptr %8) #15
  %19 = load ptr, ptr %5, align 8, !tbaa !7
  %20 = getelementptr inbounds nuw %struct.pm_parser, ptr %19, i32 0, i32 22
  %21 = load ptr, ptr %20, align 8, !tbaa !45
  %22 = getelementptr inbounds nuw %struct.pm_encoding_t, ptr %21, i32 0, i32 1
  %23 = load ptr, ptr %22, align 8, !tbaa !139
  %24 = load ptr, ptr %6, align 8, !tbaa !12
  %25 = load i64, ptr %7, align 8, !tbaa !14
  %26 = call i64 %23(ptr noundef %24, i64 noundef %25)
  store i64 %26, ptr %8, align 8, !tbaa !14
  %27 = icmp ne i64 %26, 0
  br i1 %27, label %28, label %30

28:                                               ; preds = %18
  %29 = load i64, ptr %8, align 8, !tbaa !14
  store i64 %29, ptr %4, align 8
  store i32 1, ptr %9, align 4
  br label %51

30:                                               ; preds = %18
  %31 = load ptr, ptr %6, align 8, !tbaa !12
  %32 = load i8, ptr %31, align 1, !tbaa !39
  %33 = zext i8 %32 to i32
  %34 = icmp eq i32 %33, 95
  br i1 %34, label %35, label %36

35:                                               ; preds = %30
  store i64 1, ptr %4, align 8
  store i32 1, ptr %9, align 4
  br label %51

36:                                               ; preds = %30
  %37 = load ptr, ptr %6, align 8, !tbaa !12
  %38 = load i8, ptr %37, align 1, !tbaa !39
  %39 = zext i8 %38 to i32
  %40 = icmp sge i32 %39, 128
  br i1 %40, label %41, label %50

41:                                               ; preds = %36
  %42 = load ptr, ptr %5, align 8, !tbaa !7
  %43 = getelementptr inbounds nuw %struct.pm_parser, ptr %42, i32 0, i32 22
  %44 = load ptr, ptr %43, align 8, !tbaa !45
  %45 = getelementptr inbounds nuw %struct.pm_encoding_t, ptr %44, i32 0, i32 0
  %46 = load ptr, ptr %45, align 8, !tbaa !141
  %47 = load ptr, ptr %6, align 8, !tbaa !12
  %48 = load i64, ptr %7, align 8, !tbaa !14
  %49 = call i64 %46(ptr noundef %47, i64 noundef %48)
  store i64 %49, ptr %4, align 8
  store i32 1, ptr %9, align 4
  br label %51

50:                                               ; preds = %36
  store i64 0, ptr %4, align 8
  store i32 1, ptr %9, align 4
  br label %51

51:                                               ; preds = %50, %41, %35, %28
  call void @llvm.lifetime.end.p0(i64 8, ptr %8) #15
  br label %81

52:                                               ; preds = %13
  %53 = load ptr, ptr %6, align 8, !tbaa !12
  %54 = load i8, ptr %53, align 1, !tbaa !39
  %55 = zext i8 %54 to i32
  %56 = icmp slt i32 %55, 128
  br i1 %56, label %57, label %77

57:                                               ; preds = %52
  %58 = load ptr, ptr %6, align 8, !tbaa !12
  %59 = load i8, ptr %58, align 1, !tbaa !39
  %60 = zext i8 %59 to i64
  %61 = getelementptr [256 x i8], ptr @pm_encoding_unicode_table, i64 0, i64 %60
  %62 = load i8, ptr %61, align 1, !tbaa !39
  %63 = zext i8 %62 to i32
  %64 = and i32 %63, 1
  %65 = icmp ne i32 %64, 0
  br i1 %65, label %66, label %67

66:                                               ; preds = %57
  br i1 true, label %73, label %68

67:                                               ; preds = %57
  br i1 false, label %73, label %68

68:                                               ; preds = %67, %66
  %69 = load ptr, ptr %6, align 8, !tbaa !12
  %70 = load i8, ptr %69, align 1, !tbaa !39
  %71 = zext i8 %70 to i32
  %72 = icmp eq i32 %71, 95
  br label %73

73:                                               ; preds = %68, %67, %66
  %74 = phi i1 [ true, %67 ], [ true, %66 ], [ %72, %68 ]
  %75 = zext i1 %74 to i32
  %76 = sext i32 %75 to i64
  store i64 %76, ptr %4, align 8
  br label %81

77:                                               ; preds = %52
  %78 = load ptr, ptr %6, align 8, !tbaa !12
  %79 = load i64, ptr %7, align 8, !tbaa !14
  %80 = call i64 @pm_encoding_utf_8_char_width(ptr noundef %78, i64 noundef %79)
  store i64 %80, ptr %4, align 8
  br label %81

81:                                               ; preds = %77, %73, %51, %12
  %82 = load i64, ptr %4, align 8
  ret i64 %82
}