; Function Attrs: inlinehint nounwind sspstrong uwtable
define internal fastcc i64 @char_is_identifier_start(ptr noundef readonly captures(none) %0, ptr noundef %1, i64 noundef %2) unnamed_addr #11 {
  %4 = icmp slt i64 %2, 1
  br i1 %4, label %36, label %5

5:                                                ; preds = %3
  %6 = getelementptr inbounds nuw i8, ptr %0, i64 699
  %7 = load i8, ptr %6, align 1, !tbaa !42, !range !44, !noundef !45
  %8 = trunc nuw i8 %7 to i1
  br i1 %8, label %9, label %24

9:                                                ; preds = %5
  %10 = getelementptr inbounds nuw i8, ptr %0, i64 520
  %11 = load ptr, ptr %10, align 8, !tbaa !40
  %12 = getelementptr inbounds nuw i8, ptr %11, i64 8
  %13 = load ptr, ptr %12, align 8, !tbaa !147
  %14 = tail call i64 %13(ptr noundef %1, i64 noundef %2) #31
  %.not20 = icmp eq i64 %14, 0
  br i1 %.not20, label %15, label %36

15:                                               ; preds = %9
  %16 = load i8, ptr %1, align 1, !tbaa !65
  %17 = icmp eq i8 %16, 95
  br i1 %17, label %36, label %18

18:                                               ; preds = %15
  %19 = icmp slt i8 %16, 0
  br i1 %19, label %20, label %36

20:                                               ; preds = %18
  %21 = load ptr, ptr %10, align 8, !tbaa !40
  %22 = load ptr, ptr %21, align 8, !tbaa !149
  %23 = tail call i64 %22(ptr noundef nonnull %1, i64 noundef %2) #31
  br label %36

24:                                               ; preds = %5
  %25 = load i8, ptr %1, align 1, !tbaa !65
  %26 = icmp sgt i8 %25, -1
  br i1 %26, label %27, label %34

27:                                               ; preds = %24
  %28 = zext nneg i8 %25 to i64
  %29 = getelementptr [256 x i8], ptr @pm_encoding_unicode_table, i64 0, i64 %28
  %30 = load i8, ptr %29, align 1, !tbaa !65
  %31 = and i8 %30, 1
  %.not = icmp ne i8 %31, 0
  %32 = icmp eq i8 %25, 95
  %narrow = or i1 %32, %.not
  %33 = zext i1 %narrow to i64
  br label %36

34:                                               ; preds = %24
  %35 = tail call i64 @pm_encoding_utf_8_char_width(ptr noundef nonnull %1, i64 noundef %2) #31
  br label %36

36:                                               ; preds = %20, %9, %15, %18, %3, %34, %27
  %.0 = phi i64 [ %33, %27 ], [ %35, %34 ], [ 0, %3 ], [ %23, %20 ], [ %14, %9 ], [ 1, %15 ], [ 0, %18 ]
  ret i64 %.0
}